target datalayout = "e-m:e-p270:32:32-p271:32:32-p272:64:64-i64:64-i128:128-f80:128-n8:16:32:64-S128"
target triple = "x86_64-pc-linux-gnu"

; Function Attrs: mustprogress nounwind uwtable
define noundef zeroext i1 @_ZN8triggers17mcontrol_common_t15legalize_timingEmmmmm(i64 noundef %0, i64 noundef %1, i64 noundef %2, i64 noundef %3, i64 noundef %4) #4 align 2 {
  %6 = alloca i1, align 1
  %7 = alloca i64, align 8
  %8 = alloca i64, align 8
  %9 = alloca i64, align 8
  %10 = alloca i64, align 8
  %11 = alloca i64, align 8
  store i64 %0, ptr %7, align 8, !tbaa !16
  store i64 %1, ptr %8, align 8, !tbaa !16
  store i64 %2, ptr %9, align 8, !tbaa !16
  store i64 %3, ptr %10, align 8, !tbaa !16
  store i64 %4, ptr %11, align 8, !tbaa !16
  %12 = load i64, ptr %7, align 8, !tbaa !16
  %13 = load i64, ptr %9, align 8, !tbaa !16
  %14 = and i64 %12, %13
  %15 = load i64, ptr %9, align 8, !tbaa !16
  %16 = load i64, ptr %9, align 8, !tbaa !16
  %17 = shl i64 %16, 1
  %18 = xor i64 %17, -1
  %19 = and i64 %15, %18
  %20 = udiv i64 %14, %19
  %21 = icmp ne i64 %20, 0
  br i1 %21, label %22, label %34

22:                                               ; preds = %5
  %23 = load i64, ptr %7, align 8, !tbaa !16
  %24 = load i64, ptr %11, align 8, !tbaa !16
  %25 = and i64 %23, %24
  %26 = load i64, ptr %11, align 8, !tbaa !16
  %27 = load i64, ptr %11, align 8, !tbaa !16
  %28 = shl i64 %27, 1
  %29 = xor i64 %28, -1
  %30 = and i64 %26, %29
  %31 = udiv i64 %25, %30
  %32 = icmp ne i64 %31, 0
  br i1 %32, label %33, label %34

33:                                               ; preds = %22
  store i1 true, ptr %6, align 1
  br label %61

34:                                               ; preds = %22, %5
  %35 = load i64, ptr %7, align 8, !tbaa !16
  %36 = load i64, ptr %10, align 8, !tbaa !16
  %37 = and i64 %35, %36
  %38 = load i64, ptr %10, align 8, !tbaa !16
  %39 = load i64, ptr %10, align 8, !tbaa !16
  %40 = shl i64 %39, 1
  %41 = xor i64 %40, -1
  %42 = and i64 %38, %41
  %43 = udiv i64 %37, %42
  %44 = icmp ne i64 %43, 0
  br i1 %44, label %45, label %46

45:                                               ; preds = %34
  store i1 false, ptr %6, align 1
  br label %61

46:                                               ; preds = %34
  %47 = load i64, ptr %8, align 8, !tbaa !16
  %48 = icmp ne i64 %47, 0
  br i1 %48, label %49, label %60

49:                                               ; preds = %46
  %50 = load i64, ptr %7, align 8, !tbaa !16
  %51 = load i64, ptr %8, align 8, !tbaa !16
  %52 = and i64 %50, %51
  %53 = load i64, ptr %8, align 8, !tbaa !16
  %54 = load i64, ptr %8, align 8, !tbaa !16
  %55 = shl i64 %54, 1
  %56 = xor i64 %55, -1
  %57 = and i64 %53, %56
  %58 = udiv i64 %52, %57
  %59 = icmp ne i64 %58, 0
  store i1 %59, ptr %6, align 1
  br label %61

60:                                               ; preds = %46
  store i1 false, ptr %6, align 1
  br label %61

61:                                               ; preds = %60, %49, %45, %33
  %62 = load i1, ptr %6, align 1
  ret i1 %62
}