; Function Attrs: mustprogress nofree norecurse nosync nounwind willreturn memory(none) uwtable
define noundef zeroext i1 @_ZN8triggers17mcontrol_common_t15legalize_timingEmmmmm(i64 noundef %0, i64 noundef %1, i64 noundef %2, i64 noundef %3, i64 noundef %4) local_unnamed_addr #5 align 2 {
  %6 = and i64 %2, %0
  %7 = shl i64 %2, 1
  %8 = xor i64 %7, -1
  %9 = and i64 %2, %8
  %.not = icmp ugt i64 %9, %6
  br i1 %.not, label %15, label %10

10:                                               ; preds = %5
  %11 = and i64 %4, %0
  %12 = shl i64 %4, 1
  %13 = xor i64 %12, -1
  %14 = and i64 %4, %13
  %.not18 = icmp ugt i64 %14, %11
  br i1 %.not18, label %15, label %26

15:                                               ; preds = %10, %5
  %16 = and i64 %3, %0
  %17 = shl i64 %3, 1
  %18 = xor i64 %17, -1
  %19 = and i64 %3, %18
  %.not19 = icmp ule i64 %19, %16
  %.not20 = icmp eq i64 %1, 0
  %or.cond = or i1 %.not20, %.not19
  br i1 %or.cond, label %26, label %20

20:                                               ; preds = %15
  %21 = and i64 %1, %0
  %22 = shl i64 %1, 1
  %23 = xor i64 %22, -1
  %24 = and i64 %1, %23
  %25 = icmp ule i64 %24, %21
  br label %26

26:                                               ; preds = %15, %10, %20
  %.0 = phi i1 [ %25, %20 ], [ true, %10 ], [ false, %15 ]
  ret i1 %.0
}